; Function Attrs: mustprogress uwtable
define hidden void @_ZNK4cvc58internal20FloatingPointLiteral14getSignificandEv(ptr dead_on_unwind noalias writable sret(%"class.cvc5::internal::BitVector") align 8 initializes((0, 4)) %0, ptr noundef nonnull align 8 dereferenceable(64) %1) local_unnamed_addr #4 align 2 {
  %3 = getelementptr inbounds nuw i8, ptr %1, i64 40
  %4 = load i32, ptr %3, align 8, !tbaa !9
  store i32 %4, ptr %0, align 8, !tbaa !9
  %5 = getelementptr inbounds nuw i8, ptr %0, i64 8
  %6 = getelementptr inbounds nuw i8, ptr %1, i64 48
  tail call void @__gmpz_init_set(ptr noundef nonnull align 8 dereferenceable(16) %5, ptr noundef nonnull align 8 dereferenceable(16) %6)
  ret void
}